; Function Attrs: nounwind uwtable
define ptr @l_Array_mapMUnsafe_map___at_Lean_Elab_Command_instToSnapshotTreeMacroExpandedSnapshot___spec__1(i64 noundef %0, i64 noundef %1, ptr noundef %2) local_unnamed_addr #0 {
  %.not54 = icmp ult i64 %1, %0
  br i1 %.not54, label %.lr.ph, label %._crit_edge

.lr.ph:                                           ; preds = %3, %68
  %.02656 = phi i64 [ %52, %68 ], [ %1, %3 ]
  %.02855 = phi ptr [ %.0.i.i41, %68 ], [ %2, %3 ]
  %4 = getelementptr inbounds nuw i8, ptr %.02855, i64 24
  %5 = getelementptr inbounds nuw [0 x ptr], ptr %4, i64 0, i64 %.02656
  %6 = load ptr, ptr %5, align 8, !tbaa !9
  %7 = ptrtoint ptr %6 to i64
  %8 = and i64 %7, 1
  %.not.i = icmp eq i64 %8, 0
  br i1 %.not.i, label %9, label %lean_array_uget.exit

9:                                                ; preds = %.lr.ph
  %.val.i.i = load i32, ptr %6, align 4, !tbaa !4
  %10 = icmp sgt i32 %.val.i.i, 0
  br i1 %10, label %11, label %13, !prof !13

11:                                               ; preds = %9
  %12 = add nuw i32 %.val.i.i, 1
  store i32 %12, ptr %6, align 4, !tbaa !4
  br label %lean_array_uget.exit

13:                                               ; preds = %9
  %.not.i.i = icmp eq i32 %.val.i.i, 0
  br i1 %.not.i.i, label %lean_array_uget.exit, label %14

14:                                               ; preds = %13
  tail call void @lean_inc_ref_cold(ptr noundef nonnull %6) #6
  br label %lean_array_uget.exit

lean_array_uget.exit:                             ; preds = %.lr.ph, %11, %13, %14
  %.val.i.i32 = load i32, ptr %.02855, align 4, !tbaa !4
  %15 = icmp eq i32 %.val.i.i32, 1
  br i1 %15, label %lean_ensure_exclusive_array.exit.i, label %16

16:                                               ; preds = %lean_array_uget.exit
  %17 = tail call ptr @lean_copy_expand_array(ptr noundef nonnull %.02855, i1 noundef zeroext false) #6
  br label %lean_ensure_exclusive_array.exit.i

lean_ensure_exclusive_array.exit.i:               ; preds = %16, %lean_array_uget.exit
  %.0.i.i = phi ptr [ %17, %16 ], [ %.02855, %lean_array_uget.exit ]
  %18 = getelementptr inbounds nuw i8, ptr %.0.i.i, i64 24
  %19 = getelementptr inbounds nuw ptr, ptr %18, i64 %.02656
  %20 = load ptr, ptr %19, align 8, !tbaa !9
  %21 = ptrtoint ptr %20 to i64
  %22 = and i64 %21, 1
  %.not.i33 = icmp eq i64 %22, 0
  br i1 %.not.i33, label %23, label %lean_array_uset.exit

23:                                               ; preds = %lean_ensure_exclusive_array.exit.i
  %24 = load i32, ptr %20, align 4, !tbaa !4
  %25 = icmp sgt i32 %24, 1
  br i1 %25, label %26, label %28, !prof !13

26:                                               ; preds = %23
  %27 = add nsw i32 %24, -1
  store i32 %27, ptr %20, align 4, !tbaa !4
  br label %lean_array_uset.exit

28:                                               ; preds = %23
  %.not.i.i34 = icmp eq i32 %24, 0
  br i1 %.not.i.i34, label %lean_array_uset.exit, label %29

29:                                               ; preds = %28
  tail call void @lean_dec_ref_cold(ptr noundef nonnull %20) #6
  br label %lean_array_uset.exit

lean_array_uset.exit:                             ; preds = %lean_ensure_exclusive_array.exit.i, %26, %28, %29
  store ptr inttoptr (i64 1 to ptr), ptr %19, align 8, !tbaa !9
  %30 = getelementptr inbounds nuw i8, ptr %6, i64 8
  %31 = load ptr, ptr %30, align 8, !tbaa !9
  %32 = ptrtoint ptr %31 to i64
  %33 = and i64 %32, 1
  %.not52 = icmp eq i64 %33, 0
  br i1 %.not52, label %34, label %lean_inc.exit31

34:                                               ; preds = %lean_array_uset.exit
  %.val.i = load i32, ptr %31, align 4, !tbaa !4
  %35 = icmp sgt i32 %.val.i, 0
  br i1 %35, label %36, label %38, !prof !13

36:                                               ; preds = %34
  %37 = add nuw i32 %.val.i, 1
  store i32 %37, ptr %31, align 4, !tbaa !4
  br label %lean_inc.exit31

38:                                               ; preds = %34
  %.not.i35 = icmp eq i32 %.val.i, 0
  br i1 %.not.i35, label %lean_inc.exit31, label %39

39:                                               ; preds = %38
  tail call void @lean_inc_ref_cold(ptr noundef nonnull %31) #6
  br label %lean_inc.exit31

lean_inc.exit31:                                  ; preds = %39, %38, %36, %lean_array_uset.exit
  %40 = getelementptr inbounds nuw i8, ptr %6, i64 16
  %41 = load ptr, ptr %40, align 8, !tbaa !9
  %42 = ptrtoint ptr %41 to i64
  %43 = and i64 %42, 1
  %.not53 = icmp eq i64 %43, 0
  br i1 %.not53, label %44, label %lean_inc.exit

44:                                               ; preds = %lean_inc.exit31
  %.val.i36 = load i32, ptr %41, align 4, !tbaa !4
  %45 = icmp sgt i32 %.val.i36, 0
  br i1 %45, label %46, label %48, !prof !13

46:                                               ; preds = %44
  %47 = add nuw i32 %.val.i36, 1
  store i32 %47, ptr %41, align 4, !tbaa !4
  br label %lean_inc.exit

48:                                               ; preds = %44
  %.not.i37 = icmp eq i32 %.val.i36, 0
  br i1 %.not.i37, label %lean_inc.exit, label %49

49:                                               ; preds = %48
  tail call void @lean_inc_ref_cold(ptr noundef nonnull %41) #6
  br label %lean_inc.exit

lean_inc.exit:                                    ; preds = %49, %48, %46, %lean_inc.exit31
  %50 = load ptr, ptr @l_Lean_Elab_Command_runLintersAsync___lambda__6___closed__1, align 8, !tbaa !9
  %51 = tail call ptr @l_Lean_Language_SnapshotTask_map___rarg(ptr noundef nonnull %6, ptr noundef %50, ptr noundef %31, ptr noundef %41, i8 noundef zeroext 1) #6
  %52 = add nuw i64 %.02656, 1
  %.val.i.i39 = load i32, ptr %.0.i.i, align 4, !tbaa !4
  %53 = icmp eq i32 %.val.i.i39, 1
  br i1 %53, label %lean_ensure_exclusive_array.exit.i40, label %54

54:                                               ; preds = %lean_inc.exit
  %55 = tail call ptr @lean_copy_expand_array(ptr noundef nonnull %.0.i.i, i1 noundef zeroext false) #6
  br label %lean_ensure_exclusive_array.exit.i40

lean_ensure_exclusive_array.exit.i40:             ; preds = %54, %lean_inc.exit
  %.0.i.i41 = phi ptr [ %55, %54 ], [ %.0.i.i, %lean_inc.exit ]
  %56 = getelementptr inbounds nuw i8, ptr %.0.i.i41, i64 24
  %57 = getelementptr inbounds nuw ptr, ptr %56, i64 %.02656
  %58 = load ptr, ptr %57, align 8, !tbaa !9
  %59 = ptrtoint ptr %58 to i64
  %60 = and i64 %59, 1
  %.not.i42 = icmp eq i64 %60, 0
  br i1 %.not.i42, label %61, label %68

61:                                               ; preds = %lean_ensure_exclusive_array.exit.i40
  %62 = load i32, ptr %58, align 4, !tbaa !4
  %63 = icmp sgt i32 %62, 1
  br i1 %63, label %64, label %66, !prof !13

64:                                               ; preds = %61
  %65 = add nsw i32 %62, -1
  store i32 %65, ptr %58, align 4, !tbaa !4
  br label %68

66:                                               ; preds = %61
  %.not.i.i43 = icmp eq i32 %62, 0
  br i1 %.not.i.i43, label %68, label %67

67:                                               ; preds = %66
  tail call void @lean_dec_ref_cold(ptr noundef nonnull %58) #6
  br label %68

68:                                               ; preds = %67, %66, %64, %lean_ensure_exclusive_array.exit.i40
  store ptr %51, ptr %57, align 8, !tbaa !9
  %exitcond.not = icmp eq i64 %52, %0
  br i1 %exitcond.not, label %._crit_edge, label %.lr.ph

._crit_edge:                                      ; preds = %68, %3
  %.028.lcssa = phi ptr [ %2, %3 ], [ %.0.i.i41, %68 ]
  ret ptr %.028.lcssa
}